(dp0
S'cookies'
p1
(dp2
S'wxloadtime'
p3
S'1540995840'
p4
sS'webwx_data_ticket'
p5
S'gScyiP8G9wonZgMFI5icmCFk'
p6
sS'wxuin'
p7
S'1290274820'
p8
sS'login_frequency'
p9
S'2'
p10
sS'MM_WX_NOTIFY_STATE'
p11
S'1'
p12
sS'MM_WX_SOUND_STATE'
p13
g12
sS'webwx_auth_ticket'
p14
S'CIsBEPOLpZICGoABqF78V7Y3CspotGv1YAYdph6gRJWAohcMC11uBBKP9BzTaPUkrlla2+McPZyJQ+K+ZYpHuaau0jtvdqoblBUY4nwHhhiYgyXwknqKSfGLuHAbGhwTGzBxbjjXvjo+/pTZeZDPAF8V17ianzU6++E70mjcjOHNeBzOnDJjxvxhrfk='
p15
sS'last_wxuin'
p16
S'3306839383'
p17
sS'webwxuvid'
p18
S'cad88c3ee7db058d7fae862e7e0ef9e2c06c36e0ba3a753aaffc0f898e6d95975850e38a136ffed11b376896e86b251c'
p19
sS'wxpluginkey'
p20
S'1540994804'
p21
sS'wxsid'
p22
S'L6qz/WFgPKOY+QrH'
p23
sS'mm_lang'
p24
S'zh_CN'
p25
ssS'version'
p26
S'1.3.10'
p27
sS'storage'
p28
(dp29
S'userName'
p30
V@ebd525fbd4291cac4e7f32b6cd118cb6
p31
sS'lastInputUserName'
p32
NsS'memberList'
p33
ccopy_reg
_reconstructor
p34
(citchat.storage.templates
ContactList
p35
c__builtin__
list
p36
(lp37
g34
(citchat.storage.templates
User
p38
c__builtin__
dict
p39
(dp40
S'UserName'
p41
g31
sS'City'
p42
S''
p43
sS'DisplayName'
p44
g43
sS'UniFriend'
p45
I0
sS'OwnerUin'
p46
I0
sS'MemberList'
p47
g34
(g35
g36
(lp48
tp49
Rp50
I1
bsS'PYQuanPin'
p51
V
p52
sS'RemarkPYInitial'
p53
g52
sS'Uin'
p54
I1290274820
sS'AppAccountFlag'
p55
I0
sS'VerifyFlag'
p56
I0
sS'Province'
p57
g43
sS'KeyWord'
p58
g43
sS'RemarkName'
p59
g52
sS'PYInitial'
p60
g52
sS'ChatRoomId'
p61
I0
sS'HideInputBarFlag'
p62
I0
sVHeadImgFlag
p63
I1
sS'EncryChatRoomId'
p64
g43
sS'AttrStatus'
p65
I0
sS'SnsFlag'
p66
I17
sS'MemberCount'
p67
I0
sVWebWxPluginSwitch
p68
I0
sS'Alias'
p69
g43
sS'Signature'
p70
g52
sS'ContactFlag'
p71
I0
sS'NickName'
p72
VTING
p73
sS'RemarkPYQuanPin'
p74
g52
sS'HeadImgUrl'
p75
V/cgi-bin/mmwebwx-bin/webwxgeticon?seq=986179246&username=@ebd525fbd4291cac4e7f32b6cd118cb6&skey=@crypt_92b6f913_518c882e22f93e9875d95da3bbf850c5
p76
sS'Sex'
p77
I1
sS'StarFriend'
p78
I0
sS'Statues'
p79
I0
stp80
Rp81
I1
bag34
(g38
g39
(dp82
VUserName
p83
V@22a63dded5073dcc401575710c580edbad363217024c77cd33994554402b8850
p84
sVCity
p85
g52
sVSnsFlag
p86
I1
sVDisplayName
p87
g52
sVUniFriend
p88
I0
sVMemberCount
p89
I0
sVOwnerUin
p90
I0
sVMemberList
p91
g50
sVAlias
p92
g52
sVPYQuanPin
p93
VRun
p94
sVSignature
p95
g52
sVRemarkPYInitial
p96
g52
sVContactFlag
p97
I3
sVUin
p98
I0
sVNickName
p99
VRun
p100
sVAppAccountFlag
p101
I0
sVVerifyFlag
p102
I0
sVRemarkPYQuanPin
p103
g52
sVHeadImgUrl
p104
V/cgi-bin/mmwebwx-bin/webwxgeticon?seq=646318328&username=@22a63dded5073dcc401575710c580edbad363217024c77cd33994554402b8850&skey=@crypt_92b6f913_518c882e22f93e9875d95da3bbf850c5
p105
sVKeyWord
p106
g52
sVProvince
p107
g52
sVPYInitial
p108
VRUN
p109
sVRemarkName
p110
g52
sVIsOwner
p111
I0
sVSex
p112
I0
sVStarFriend
p113
I0
sVHideInputBarFlag
p114
I0
sVChatRoomId
p115
I0
sVEncryChatRoomId
p116
g52
sVAttrStatus
p117
I234277
sVStatues
p118
I0
stp119
Rp120
I1
batp121
Rp122
I1
bsS'chatroomList'
p123
g34
(g35
g36
(lp124
g34
(citchat.storage.templates
Chatroom
p125
g39
(dp126
VUserName
p127
V@@06815aa62fecf10a49bd32d1f10092cc9d3c9f503ce00d7910b50e3bfb668435
p128
sVCity
p129
g52
sVDisplayName
p130
g52
sVUniFriend
p131
I0
sS'Self'
p132
g34
(g38
g39
(dp133
g41
g31
sg42
g43
sg44
g43
sg45
I0
sg46
I0
sg47
g34
(g35
g36
(lp134
tp135
Rp136
I1
bsg51
g52
sg53
g52
sg54
I1290274820
sg55
I0
sg56
I0
sg57
g43
sg58
g43
sg59
g52
sg60
g52
sg61
I0
sg62
I0
sg63
I1
sg64
g43
sg65
I0
sg66
I17
sg67
I0
sg68
I0
sg69
g43
sg70
g52
sg71
I0
sg72
g73
sg74
g52
sg75
g76
sg77
I1
sg78
I0
sg79
I0
stp137
Rp138
I1
bsVMemberList
p139
g34
(g35
g36
(lp140
tp141
Rp142
I1
bsVPYQuanPin
p143
g52
sVRemarkPYInitial
p144
g52
sVSex
p145
I0
sVAppAccountFlag
p146
I0
sVVerifyFlag
p147
I0
sVProvince
p148
g52
sVKeyWord
p149
g52
sVRemarkName
p150
g52
sVPYInitial
p151
g52
sVIsOwner
p152
I0
sVChatRoomId
p153
I0
sVHideInputBarFlag
p154
I0
sVEncryChatRoomId
p155
g52
sVAttrStatus
p156
I0
sVSnsFlag
p157
I0
sVMemberCount
p158
I10
sVOwnerUin
p159
I0
sVAlias
p160
g52
sS'IsAdmin'
p161
NsVSignature
p162
g52
sVContactFlag
p163
I0
sVNickName
p164
V\u5403\u559d\u73a9\u4e50
p165
sVRemarkPYQuanPin
p166
g52
sVHeadImgUrl
p167
V/cgi-bin/mmwebwx-bin/webwxgetheadimg?seq=0&username=@@06815aa62fecf10a49bd32d1f10092cc9d3c9f503ce00d7910b50e3bfb668435&skey=@crypt_92b6f913_518c882e22f93e9875d95da3bbf850c5
p168
sVUin
p169
I0
sVStarFriend
p170
I0
sVStatues
p171
I1
stp172
Rp173
I1
bag34
(g125
g39
(dp174
VUserName
p175
V@@9bdeaabc4ead5863111e26b3cd02a8227433f7aeb558bb3629b3a73142d83a0c
p176
sVCity
p177
g52
sVDisplayName
p178
g52
sVUniFriend
p179
I0
sg132
g34
(g38
g39
(dp180
g41
g31
sg42
g43
sg44
g43
sg45
I0
sg46
I0
sg47
g34
(g35
g36
(lp181
tp182
Rp183
I1
bsg51
g52
sg53
g52
sg54
I1290274820
sg55
I0
sg56
I0
sg57
g43
sg58
g43
sg59
g52
sg60
g52
sg61
I0
sg62
I0
sg63
I1
sg64
g43
sg65
I0
sg66
I17
sg67
I0
sg68
I0
sg69
g43
sg70
g52
sg71
I0
sg72
g73
sg74
g52
sg75
g76
sg77
I1
sg78
I0
sg79
I0
stp184
Rp185
I1
bsVMemberList
p186
g34
(g35
g36
(lp187
tp188
Rp189
I1
bsVPYQuanPin
p190
g52
sVRemarkPYInitial
p191
g52
sVSex
p192
I0
sVAppAccountFlag
p193
I0
sVVerifyFlag
p194
I0
sVProvince
p195
g52
sVKeyWord
p196
g52
sVRemarkName
p197
g52
sVPYInitial
p198
g52
sVIsOwner
p199
I0
sVChatRoomId
p200
I0
sVHideInputBarFlag
p201
I0
sVEncryChatRoomId
p202
g52
sVAttrStatus
p203
I0
sVSnsFlag
p204
I0
sVMemberCount
p205
I215
sVOwnerUin
p206
I0
sVAlias
p207
g52
sg161
NsVSignature
p208
g52
sVContactFlag
p209
I2
sVNickName
p210
VNF1209\u5171\u4eab\u7ea2\u5305
p211
sVRemarkPYQuanPin
p212
g52
sVHeadImgUrl
p213
V/cgi-bin/mmwebwx-bin/webwxgetheadimg?seq=647102646&username=@@9bdeaabc4ead5863111e26b3cd02a8227433f7aeb558bb3629b3a73142d83a0c&skey=@crypt_92b6f913_518c882e22f93e9875d95da3bbf850c5
p214
sVUin
p215
I0
sVStarFriend
p216
I0
sVStatues
p217
I0
stp218
Rp219
I1
bag34
(g125
g39
(dp220
VUserName
p221
V@@08c1eb75e861bca6ad8dc312723aaf62834e7b8c57870968d549bb4a18f2f8d6
p222
sVCity
p223
g52
sVDisplayName
p224
g52
sVUniFriend
p225
I0
sg132
g34
(g38
g39
(dp226
g41
g31
sg42
g43
sg44
g43
sg45
I0
sg46
I0
sg47
g34
(g35
g36
(lp227
tp228
Rp229
I1
bsg51
g52
sg53
g52
sg54
I1290274820
sg55
I0
sg56
I0
sg57
g43
sg58
g43
sg59
g52
sg60
g52
sg61
I0
sg62
I0
sg63
I1
sg64
g43
sg65
I0
sg66
I17
sg67
I0
sg68
I0
sg69
g43
sg70
g52
sg71
I0
sg72
g73
sg74
g52
sg75
g76
sg77
I1
sg78
I0
sg79
I0
stp230
Rp231
I1
bsVMemberList
p232
g34
(g35
g36
(lp233
tp234
Rp235
I1
bsVPYQuanPin
p236
g52
sVRemarkPYInitial
p237
g52
sVSex
p238
I0
sVAppAccountFlag
p239
I0
sVVerifyFlag
p240
I0
sVProvince
p241
g52
sVKeyWord
p242
g52
sVRemarkName
p243
g52
sVPYInitial
p244
g52
sVIsOwner
p245
I0
sVChatRoomId
p246
I0
sVHideInputBarFlag
p247
I0
sVEncryChatRoomId
p248
g52
sVAttrStatus
p249
I0
sVSnsFlag
p250
I0
sVMemberCount
p251
I17
sVOwnerUin
p252
I0
sVAlias
p253
g52
sg161
NsVSignature
p254
g52
sVContactFlag
p255
I0
sVNickName
p256
V\u55e8\u8d77\u6765\U0001f616\u2b50\ufe0f\U0001f31f\u2747\u26a1\ufe0f\U0001f308\U0001f308
p257
sVRemarkPYQuanPin
p258
g52
sVHeadImgUrl
p259
V/cgi-bin/mmwebwx-bin/webwxgetheadimg?seq=0&username=@@08c1eb75e861bca6ad8dc312723aaf62834e7b8c57870968d549bb4a18f2f8d6&skey=@crypt_92b6f913_518c882e22f93e9875d95da3bbf850c5
p260
sVUin
p261
I0
sVStarFriend
p262
I0
sVStatues
p263
I1
stp264
Rp265
I1
bag34
(g125
g39
(dp266
VUserName
p267
V@@ad7450cf5125158dba24bbc45013d2102a9317289e84e6727a39956f0f19f44b
p268
sVCity
p269
g52
sVDisplayName
p270
g52
sVUniFriend
p271
I0
sg132
g34
(g38
g39
(dp272
g41
g31
sg42
g43
sg44
g43
sg45
I0
sg46
I0
sg47
g34
(g35
g36
(lp273
tp274
Rp275
I1
bsg51
g52
sg53
g52
sg54
I1290274820
sg55
I0
sg56
I0
sg57
g43
sg58
g43
sg59
g52
sg60
g52
sg61
I0
sg62
I0
sg63
I1
sg64
g43
sg65
I0
sg66
I17
sg67
I0
sg68
I0
sg69
g43
sg70
g52
sg71
I0
sg72
g73
sg74
g52
sg75
g76
sg77
I1
sg78
I0
sg79
I0
stp276
Rp277
I1
bsVMemberList
p278
g34
(g35
g36
(lp279
tp280
Rp281
I1
bsVPYQuanPin
p282
g52
sVRemarkPYInitial
p283
g52
sVSex
p284
I0
sVAppAccountFlag
p285
I0
sVVerifyFlag
p286
I0
sVProvince
p287
g52
sVKeyWord
p288
g52
sVRemarkName
p289
g52
sVPYInitial
p290
g52
sVIsOwner
p291
I1
sVChatRoomId
p292
I0
sVHideInputBarFlag
p293
I0
sVEncryChatRoomId
p294
g52
sVAttrStatus
p295
I0
sVSnsFlag
p296
I0
sVMemberCount
p297
I9
sVOwnerUin
p298
I0
sVAlias
p299
g52
sg161
NsVSignature
p300
g52
sVContactFlag
p301
I0
sVNickName
p302
V\u8001\u6c99\u96d5\u7fa4\u3002
p303
sVRemarkPYQuanPin
p304
g52
sVHeadImgUrl
p305
V/cgi-bin/mmwebwx-bin/webwxgetheadimg?seq=0&username=@@ad7450cf5125158dba24bbc45013d2102a9317289e84e6727a39956f0f19f44b&skey=@crypt_92b6f913_518c882e22f93e9875d95da3bbf850c5
p306
sVUin
p307
I0
sVStarFriend
p308
I0
sVStatues
p309
I0
stp310
Rp311
I1
batp312
Rp313
I1
bsS'nickName'
p314
g73
sS'mpList'
p315
g34
(g35
g36
(lp316
g34
(citchat.storage.templates
MassivePlatform
p317
g39
(dp318
VUserName
p319
V@013fc593d553007e6b9eddd4f60b9659
p320
sVCity
p321
V\u671d\u9633
p322
sVSnsFlag
p323
I0
sVDisplayName
p324
g52
sVUniFriend
p325
I0
sVMemberCount
p326
I0
sVOwnerUin
p327
I0
sVMemberList
p328
g50
sVAlias
p329
g52
sVPYQuanPin
p330
Vdaxianggonghui
p331
sVSignature
p332
V\u7cbe\u795e\u98df\u7cae\u3002
p333
sVRemarkPYInitial
p334
g52
sVContactFlag
p335
I3
sVUin
p336
I0
sVNickName
p337
V\u5927\u8c61\u516c\u4f1a
p338
sVAppAccountFlag
p339
I0
sVVerifyFlag
p340
I24
sVRemarkPYQuanPin
p341
g52
sVHeadImgUrl
p342
V/cgi-bin/mmwebwx-bin/webwxgeticon?seq=647082013&username=@013fc593d553007e6b9eddd4f60b9659&skey=@crypt_92b6f913_518c882e22f93e9875d95da3bbf850c5
p343
sVKeyWord
p344
Vgh_
p345
sVProvince
p346
V\u5317\u4eac
p347
sVPYInitial
p348
VDXGH
p349
sVRemarkName
p350
g52
sVIsOwner
p351
I0
sVSex
p352
I0
sVStarFriend
p353
I0
sVHideInputBarFlag
p354
I0
sVChatRoomId
p355
I0
sVEncryChatRoomId
p356
g52
sVAttrStatus
p357
I0
sVStatues
p358
I0
stp359
Rp360
I1
bag34
(g317
g39
(dp361
VUserName
p362
V@2ca4bc83ac60a36561e6da24fc37b50f
p363
sVCity
p364
V\u6210\u90fd
p365
sVSnsFlag
p366
I0
sVDisplayName
p367
g52
sVUniFriend
p368
I0
sVMemberCount
p369
I0
sVOwnerUin
p370
I0
sVMemberList
p371
g50
sVAlias
p372
g52
sVPYQuanPin
p373
VFIXzimuxia
p374
sVSignature
p375
VFIX\u5b57\u5e55\u4fa0\u5b98\u65b9\u516c\u4f17\u53f7
p376
sVRemarkPYInitial
p377
g52
sVContactFlag
p378
I3
sVUin
p379
I0
sVNickName
p380
VFIX\u5b57\u5e55\u4fa0
p381
sVAppAccountFlag
p382
I0
sVVerifyFlag
p383
I24
sVRemarkPYQuanPin
p384
g52
sVHeadImgUrl
p385
V/cgi-bin/mmwebwx-bin/webwxgeticon?seq=632514139&username=@2ca4bc83ac60a36561e6da24fc37b50f&skey=@crypt_92b6f913_518c882e22f93e9875d95da3bbf850c5
p386
sVKeyWord
p387
Vgh_
p388
sVProvince
p389
V\u56db\u5ddd
p390
sVPYInitial
p391
VFIXZMX
p392
sVRemarkName
p393
g52
sVIsOwner
p394
I0
sVSex
p395
I0
sVStarFriend
p396
I0
sVHideInputBarFlag
p397
I0
sVChatRoomId
p398
I0
sVEncryChatRoomId
p399
g52
sVAttrStatus
p400
I0
sVStatues
p401
I0
stp402
Rp403
I1
bag34
(g317
g39
(dp404
VUserName
p405
V@4414f23f8f39d4c57cafc9c6394c145a
p406
sVCity
p407
V\u5f90\u6c47
p408
sVSnsFlag
p409
I0
sVDisplayName
p410
g52
sVUniFriend
p411
I0
sVMemberCount
p412
I0
sVOwnerUin
p413
I0
sVMemberList
p414
g50
sVAlias
p415
g52
sVPYQuanPin
p416
VUnibrownyouxingafei
p417
sVSignature
p418
V\u7531\u5fc3\u5496\u5561\u2014\u2014\u5546\u52a1\u7a7a\u95f4\u5171\u4eab\u5496\u5561\uff0b\uff0c \u56fd\u5185\u9996\u4e2a\u670d\u52a1\u4e8e\u5546\u52a1\u7a7a\u95f4\u7684\u7cbe\u54c1\u5496\u5561\u54c1\u724c\u3002
p419
sVRemarkPYInitial
p420
g52
sVContactFlag
p421
I3
sVUin
p422
I0
sVNickName
p423
VUnibrown\u7531\u5fc3\u5496\u5561
p424
sVAppAccountFlag
p425
I0
sVVerifyFlag
p426
I24
sVRemarkPYQuanPin
p427
g52
sVHeadImgUrl
p428
V/cgi-bin/mmwebwx-bin/webwxgeticon?seq=632425250&username=@4414f23f8f39d4c57cafc9c6394c145a&skey=@crypt_92b6f913_518c882e22f93e9875d95da3bbf850c5
p429
sVKeyWord
p430
Vgh_
p431
sVProvince
p432
V\u4e0a\u6d77
p433
sVPYInitial
p434
VUNIBROWNYXGF
p435
sVRemarkName
p436
g52
sVIsOwner
p437
I0
sVSex
p438
I0
sVStarFriend
p439
I0
sVHideInputBarFlag
p440
I0
sVChatRoomId
p441
I0
sVEncryChatRoomId
p442
g52
sVAttrStatus
p443
I0
sVStatues
p444
I0
stp445
Rp446
I1
bag34
(g317
g39
(dp447
VUserName
p448
V@9192ba48150d6bf19387f538c35a3774
p449
sVCity
p450
V\u957f\u5b81
p451
sVSnsFlag
p452
I0
sVDisplayName
p453
g52
sVUniFriend
p454
I0
sVMemberCount
p455
I0
sVOwnerUin
p456
I0
sVMemberList
p457
g50
sVAlias
p458
g52
sVPYQuanPin
p459
Vchongmeixinggongan
p460
sVSignature
p461
V\u5e74\u8f7b\u4eba\u751f\u6d3b\u805a\u96c6\u7684\u5411\u5f80\u5730\u5e26
p462
sVRemarkPYInitial
p463
g52
sVContactFlag
p464
I3
sVUin
p465
I0
sVNickName
p466
V\u5ba0\u9b45\u661f\u5de5\u5382
p467
sVAppAccountFlag
p468
I0
sVVerifyFlag
p469
I24
sVRemarkPYQuanPin
p470
g52
sVHeadImgUrl
p471
V/cgi-bin/mmwebwx-bin/webwxgeticon?seq=647053904&username=@9192ba48150d6bf19387f538c35a3774&skey=@crypt_92b6f913_518c882e22f93e9875d95da3bbf850c5
p472
sVKeyWord
p473
Vgh_
p474
sVProvince
p475
V\u4e0a\u6d77
p476
sVPYInitial
p477
VCMXGA
p478
sVRemarkName
p479
g52
sVIsOwner
p480
I0
sVSex
p481
I0
sVStarFriend
p482
I0
sVHideInputBarFlag
p483
I0
sVChatRoomId
p484
I0
sVEncryChatRoomId
p485
g52
sVAttrStatus
p486
I0
sVStatues
p487
I0
stp488
Rp489
I1
bag34
(g317
g39
(dp490
VUserName
p491
V@5cae2b41d6ef2b030543027b6878e113
p492
sVCity
p493
g52
sVSnsFlag
p494
I0
sVDisplayName
p495
g52
sVUniFriend
p496
I0
sVMemberCount
p497
I0
sVOwnerUin
p498
I0
sVMemberList
p499
g50
sVAlias
p500
g52
sVPYQuanPin
p501
Vwandianyuedou
p502
sVSignature
p503
V\u665a\u70b9\u60a6\u8bfb
p504
sVRemarkPYInitial
p505
g52
sVContactFlag
p506
I3
sVUin
p507
I0
sVNickName
p508
V\u665a\u70b9\u60a6\u8bfb
p509
sVAppAccountFlag
p510
I0
sVVerifyFlag
p511
I24
sVRemarkPYQuanPin
p512
g52
sVHeadImgUrl
p513
V/cgi-bin/mmwebwx-bin/webwxgeticon?seq=647056848&username=@5cae2b41d6ef2b030543027b6878e113&skey=@crypt_92b6f913_518c882e22f93e9875d95da3bbf850c5
p514
sVKeyWord
p515
Vgh_
p516
sVProvince
p517
g52
sVPYInitial
p518
VWDYD
p519
sVRemarkName
p520
g52
sVIsOwner
p521
I0
sVSex
p522
I0
sVStarFriend
p523
I0
sVHideInputBarFlag
p524
I0
sVChatRoomId
p525
I0
sVEncryChatRoomId
p526
g52
sVAttrStatus
p527
I0
sVStatues
p528
I0
stp529
Rp530
I1
batp531
Rp532
I1
bssS'loginInfo'
p533
(dp534
S'SyncKey'
p535
(dp536
VCount
p537
I4
sVList
p538
(lp539
(dp540
VVal
p541
I647103115
sVKey
p542
I1
sa(dp543
VVal
p544
I647103315
sVKey
p545
I2
sa(dp546
VVal
p547
I647103316
sVKey
p548
I3
sa(dp549
VVal
p550
I1540994804
sVKey
p551
I1000
sassS'syncUrl'
p552
S'https://webpush.web.wechat.com/cgi-bin/mmwebwx-bin'
p553
sS'skey'
p554
V@crypt_92b6f913_518c882e22f93e9875d95da3bbf850c5
p555
sS'wxuin'
p556
V1290274820
p557
sS'synckey'
p558
S'1_647103115|2_647103315|3_647103316|1000_1540994804'
p559
sS'url'
p560
Vhttps://web.wechat.com/cgi-bin/mmwebwx-bin
p561
sS'pass_ticket'
p562
VUBiEZP5LyGYwzrtXY5uW1Y9uuOiYndaNFI%2FtIuIiiSoOhsmfOxbnRKpbquufSV2T
p563
sS'wxsid'
p564
VL6qz/WFgPKOY+QrH
p565
sS'BaseRequest'
p566
(dp567
g54
g557
sS'Skey'
p568
g555
sS'DeviceID'
p569
g563
sS'Sid'
p570
g565
ssS'User'
p571
g34
(g38
g39
(dp572
g41
g31
sg42
g43
sg44
g43
sg45
I0
sg47
g50
sg51
g52
sg53
g52
sg77
I1
sg55
I0
sg56
I0
sg57
g43
sg58
g43
sg59
g52
sg60
g52
sg61
I0
sg62
I0
sg63
I1
sg64
g43
sg65
I0
sg68
I0
sg66
I17
sg67
I0
sg46
I0
sg69
g43
sg70
g52
sg71
I0
sg72
g73
sg74
g52
sg75
g76
sg54
I1290274820
sg78
I0
sg79
I0
stp573
Rp574
I1
bsS'fileUrl'
p575
S'https://file.web.wechat.com/cgi-bin/mmwebwx-bin'
p576
sS'InviteStartCount'
p577
I40
sS'deviceid'
p578
S'e557078679247552'
p579
ss.