(dp0
S'cookies'
p1
(dp2
S'webwx_data_ticket'
p3
S'gScVnZdTDajUjIou9zGdD/lr'
p4
sS'wxuin'
p5
S'3306839383'
p6
sS'webwxuvid'
p7
S'cad88c3ee7db058d7fae862e7e0ef9e2c06c36e0ba3a753aaffc0f898e6d95975850e38a136ffed11b376896e86b251c'
p8
sS'webwx_auth_ticket'
p9
S'CIsBEMa/6vsKGoABXH/NDe9A0Gcm4GjpY5C8A/xLc+ndQGmH/M0l/Z+ag4rfYbS45jCXHc++p3uRvSjuSKvgmC+TMqw+ipOhcVYR2BqWGEpcjmQY9R5ffMPcSOnEo75gdH2pWXo/FR9OjZ8r957Yr4YE4QcC+ZR+YOnL2KqIZx4HuMOSyZD3HT2LJD8='
p10
sS'wxloadtime'
p11
S'1513407987'
p12
sS'wxsid'
p13
S'dBOI0TI8OQN48yHT'
p14
sS'mm_lang'
p15
S'zh_CN'
p16
ssS'version'
p17
S'1.3.10'
p18
sS'storage'
p19
(dp20
S'userName'
p21
V@d6a90603ad36e7a67d1610f952ac9f54424cf00f1a79d299e2fea27db5ea0efc
p22
sS'lastInputUserName'
p23
NsS'memberList'
p24
ccopy_reg
_reconstructor
p25
(citchat.storage.templates
ContactList
p26
c__builtin__
list
p27
(lp28
g25
(citchat.storage.templates
User
p29
c__builtin__
dict
p30
(dp31
S'UserName'
p32
g22
sS'City'
p33
S''
p34
sS'DisplayName'
p35
g34
sS'UniFriend'
p36
I0
sS'OwnerUin'
p37
I0
sS'MemberList'
p38
g25
(g26
g27
(lp39
tp40
Rp41
I1
bsS'PYQuanPin'
p42
V
p43
sS'RemarkPYInitial'
p44
g43
sS'Uin'
p45
L3306839383L
sS'AppAccountFlag'
p46
I0
sS'VerifyFlag'
p47
I0
sS'Province'
p48
g34
sS'KeyWord'
p49
g34
sS'RemarkName'
p50
g43
sS'PYInitial'
p51
g43
sS'ChatRoomId'
p52
I0
sS'HideInputBarFlag'
p53
I0
sVHeadImgFlag
p54
I1
sS'EncryChatRoomId'
p55
g34
sS'AttrStatus'
p56
I0
sS'SnsFlag'
p57
I0
sS'MemberCount'
p58
I0
sVWebWxPluginSwitch
p59
I0
sS'Alias'
p60
g34
sS'Signature'
p61
g43
sS'ContactFlag'
p62
I0
sS'NickName'
p63
V\u7d20\u8def\u7d20\u8def
p64
sS'RemarkPYQuanPin'
p65
g43
sS'HeadImgUrl'
p66
V/cgi-bin/mmwebwx-bin/webwxgeticon?seq=762936812&username=@d6a90603ad36e7a67d1610f952ac9f54424cf00f1a79d299e2fea27db5ea0efc&skey=@crypt_346518d6_b89ecbc5b8681964c0da11daecd6242b
p67
sS'Sex'
p68
I0
sS'StarFriend'
p69
I0
sS'Statues'
p70
I0
stp71
Rp72
I1
bag25
(g29
g30
(dp73
VUserName
p74
V@331f569b502f3ddca77f284e4c82f9e9
p75
sVCity
p76
V\u6d66\u4e1c\u65b0\u533a
p77
sVSnsFlag
p78
I17
sVDisplayName
p79
g43
sVUniFriend
p80
I0
sVMemberCount
p81
I0
sVOwnerUin
p82
I0
sVMemberList
p83
g41
sVAlias
p84
g43
sVPYQuanPin
p85
VTING
p86
sVSignature
p87
g43
sVRemarkPYInitial
p88
g43
sVContactFlag
p89
I3
sVUin
p90
I0
sVNickName
p91
VTING
p92
sVAppAccountFlag
p93
I0
sVVerifyFlag
p94
I0
sVRemarkPYQuanPin
p95
g43
sVHeadImgUrl
p96
V/cgi-bin/mmwebwx-bin/webwxgeticon?seq=601680137&username=@331f569b502f3ddca77f284e4c82f9e9&skey=@crypt_346518d6_b89ecbc5b8681964c0da11daecd6242b
p97
sVKeyWord
p98
Vtin
p99
sVProvince
p100
V\u4e0a\u6d77
p101
sVPYInitial
p102
VTING
p103
sVRemarkName
p104
g43
sVIsOwner
p105
I0
sVSex
p106
I1
sVStarFriend
p107
I0
sVHideInputBarFlag
p108
I0
sVChatRoomId
p109
I0
sVEncryChatRoomId
p110
g43
sVAttrStatus
p111
I100896869
sVStatues
p112
I0
stp113
Rp114
I1
bag25
(g29
g30
(dp115
VUserName
p116
V@880e75130b7c7b5fff20c96bd7f180a88a325df2e4873077bd1f9d8923320a64
p117
sVCity
p118
V\u6df1\u5733
p119
sVSnsFlag
p120
I17
sVDisplayName
p121
g43
sVUniFriend
p122
I0
sVMemberCount
p123
I0
sVOwnerUin
p124
I0
sVMemberList
p125
g41
sVAlias
p126
g43
sVPYQuanPin
p127
Vdianspanclassemojiemoji1f353span
p128
sVSignature
p129
g43
sVRemarkPYInitial
p130
g43
sVContactFlag
p131
I3
sVUin
p132
I0
sVNickName
p133
V\u5178\U0001f353
p134
sVAppAccountFlag
p135
I0
sVVerifyFlag
p136
I0
sVRemarkPYQuanPin
p137
g43
sVHeadImgUrl
p138
V/cgi-bin/mmwebwx-bin/webwxgeticon?seq=607330006&username=@880e75130b7c7b5fff20c96bd7f180a88a325df2e4873077bd1f9d8923320a64&skey=@crypt_346518d6_b89ecbc5b8681964c0da11daecd6242b
p139
sVKeyWord
p140
g43
sVProvince
p141
V\u5e7f\u4e1c
p142
sVPYInitial
p143
VDSPANCLASSEMOJIEMOJI1F353SPAN
p144
sVRemarkName
p145
g43
sVIsOwner
p146
I0
sVSex
p147
I2
sVStarFriend
p148
I0
sVHideInputBarFlag
p149
I0
sVChatRoomId
p150
I0
sVEncryChatRoomId
p151
g43
sVAttrStatus
p152
I103975
sVStatues
p153
I0
stp154
Rp155
I1
batp156
Rp157
I1
bsS'chatroomList'
p158
g25
(g26
g27
(lp159
tp160
Rp161
I1
bsS'nickName'
p162
g64
sS'mpList'
p163
g25
(g26
g27
(lp164
g25
(citchat.storage.templates
MassivePlatform
p165
g30
(dp166
VUserName
p167
V@1c2438b40e2085e9f07e01bfc187021d
p168
sVCity
p169
V\u6d77\u6dc0
p170
sVSnsFlag
p171
I0
sVDisplayName
p172
g43
sVUniFriend
p173
I0
sVMemberCount
p174
I0
sVOwnerUin
p175
I0
sVMemberList
p176
g41
sVAlias
p177
g43
sVPYQuanPin
p178
Vxiaobing
p179
sVSignature
p180
V\u6211\u662f\u4eba\u5de5\u667a\u80fd\u5fae\u8f6f\u5c0f\u51b0~~
p181
sVRemarkPYInitial
p182
g43
sVContactFlag
p183
I3
sVUin
p184
I0
sVNickName
p185
V\u5c0f\u51b0
p186
sVAppAccountFlag
p187
I0
sVVerifyFlag
p188
I24
sVRemarkPYQuanPin
p189
g43
sVHeadImgUrl
p190
V/cgi-bin/mmwebwx-bin/webwxgeticon?seq=601680100&username=@1c2438b40e2085e9f07e01bfc187021d&skey=@crypt_346518d6_b89ecbc5b8681964c0da11daecd6242b
p191
sVKeyWord
p192
Vgh_
p193
sVProvince
p194
V\u5317\u4eac
p195
sVPYInitial
p196
VXB
p197
sVRemarkName
p198
g43
sVIsOwner
p199
I0
sVSex
p200
I0
sVStarFriend
p201
I0
sVHideInputBarFlag
p202
I0
sVChatRoomId
p203
I0
sVEncryChatRoomId
p204
g43
sVAttrStatus
p205
I0
sVStatues
p206
I0
stp207
Rp208
I1
batp209
Rp210
I1
bssS'loginInfo'
p211
(dp212
S'SyncKey'
p213
(dp214
VCount
p215
I4
sVList
p216
(lp217
(dp218
VVal
p219
I607330005
sVKey
p220
I1
sa(dp221
VVal
p222
I607330101
sVKey
p223
I2
sa(dp224
VVal
p225
I607330006
sVKey
p226
I3
sa(dp227
VVal
p228
I1513396922
sVKey
p229
I1000
sassS'syncUrl'
p230
S'https://webpush.wx2.qq.com/cgi-bin/mmwebwx-bin'
p231
sS'skey'
p232
V@crypt_346518d6_b89ecbc5b8681964c0da11daecd6242b
p233
sS'wxuin'
p234
V3306839383
p235
sS'synckey'
p236
S'1_607330005|2_607330101|3_607330006|1000_1513396922'
p237
sS'url'
p238
Vhttps://wx2.qq.com/cgi-bin/mmwebwx-bin
p239
sS'pass_ticket'
p240
Vn1zgf6dddzcfnwvQDy5S5OBgCrZh1Wp%2B1Q4XiSSTwnJVMUpXhiPnH4UD2YWzZ2VG
p241
sS'wxsid'
p242
VdBOI0TI8OQN48yHT
p243
sS'InviteStartCount'
p244
I40
sS'deviceid'
p245
S'e187576619772394'
p246
sS'fileUrl'
p247
S'https://file.wx2.qq.com/cgi-bin/mmwebwx-bin'
p248
sS'BaseRequest'
p249
(dp250
g45
g235
sS'Skey'
p251
g233
sS'DeviceID'
p252
g241
sS'Sid'
p253
g243
ssS'User'
p254
g25
(g29
g30
(dp255
g32
g22
sg33
g34
sg35
g34
sg36
I0
sg38
g41
sg42
g43
sg44
g43
sg68
I0
sg46
I0
sg47
I0
sg48
g34
sg49
g34
sg50
g43
sg51
g43
sg52
I0
sg53
I0
sg54
I1
sg55
g34
sg56
I0
sg59
I0
sg57
I0
sg58
I0
sg37
I0
sg60
g34
sg61
g43
sg62
I0
sg63
g64
sg65
g43
sg66
g67
sg45
L3306839383L
sg69
I0
sg70
I0
stp256
Rp257
I1
bss.